
sm.o:     file format pe-i386


Disassembly of section .text:

00000000 <_main>:
   0:	55                   	push   ebp
   1:	89 e5                	mov    ebp,esp
   3:	83 e4 f0             	and    esp,0xfffffff0
   6:	83 ec 20             	sub    esp,0x20
   9:	e8 00 00 00 00       	call   e <_main+0xe>
   e:	c7 04 24 00 00 00 00 	mov    DWORD PTR [esp],0x0
  15:	e8 00 00 00 00       	call   1a <_main+0x1a>
  1a:	8d 44 24 18          	lea    eax,[esp+0x18]
  1e:	89 44 24 08          	mov    DWORD PTR [esp+0x8],eax
  22:	8d 44 24 1c          	lea    eax,[esp+0x1c]
  26:	89 44 24 04          	mov    DWORD PTR [esp+0x4],eax
  2a:	c7 04 24 12 00 00 00 	mov    DWORD PTR [esp],0x12
  31:	e8 00 00 00 00       	call   36 <_main+0x36>
  36:	8b 54 24 1c          	mov    edx,DWORD PTR [esp+0x1c]
  3a:	8b 44 24 18          	mov    eax,DWORD PTR [esp+0x18]
  3e:	39 c2                	cmp    edx,eax
  40:	7e 0e                	jle    50 <_main+0x50>
  42:	c7 04 24 18 00 00 00 	mov    DWORD PTR [esp],0x18
  49:	e8 00 00 00 00       	call   4e <_main+0x4e>
  4e:	eb 26                	jmp    76 <_main+0x76>
  50:	8b 54 24 18          	mov    edx,DWORD PTR [esp+0x18]
  54:	8b 44 24 1c          	mov    eax,DWORD PTR [esp+0x1c]
  58:	39 c2                	cmp    edx,eax
  5a:	7e 0e                	jle    6a <_main+0x6a>
  5c:	c7 04 24 30 00 00 00 	mov    DWORD PTR [esp],0x30
  63:	e8 00 00 00 00       	call   68 <_main+0x68>
  68:	eb 0c                	jmp    76 <_main+0x76>
  6a:	c7 04 24 48 00 00 00 	mov    DWORD PTR [esp],0x48
  71:	e8 00 00 00 00       	call   76 <_main+0x76>
  76:	b8 00 00 00 00       	mov    eax,0x0
  7b:	c9                   	leave  
  7c:	c3                   	ret    
  7d:	90                   	nop
  7e:	90                   	nop
  7f:	90                   	nop
